#include <math.h>
#include <stdio.h>
#include <stdlib.h>
#include <string.h>

int main()
{
	int a[200][200],b[200][200];
	int i,j,k,l,s;
	int m,n;
	for(i=0;i<200;i++)
	{
		for(j=0;j<200;j++)
		{
			b[i][j]=0;
		}
	}
	scanf("%d%d",&m,&n);
    for(i=1;i<=m;i++)
	{
		for(j=1;j<=n;j++)
		{
			scanf("%d",&a[i][j]);
			b[i][j]=1;
		}
	}
	i=1;
	j=1;
	s=1;
    for(l=0;l<m*n;l++)
	{
		b[i][j]=0;
		printf("%d\n",a[i][j]);
		if(s==1)
		{
			if(b[i][j+1]==1)
			{
				j=j+1;
			}
			else if(b[i][j+1]==0)
			{
				i=i+1;
				s=2;
			}
		}
		else if(s==2)
		{
			if(b[i+1][j]==1)
			{
				i=i+1;
			}
			else
			{
				j=j-1;
				s=3;
			}
		}
		else if(s==3)
		{
			if(b[i][j-1]==1)
			{
				j=j-1;
			}
			else 
			{
				i=i-1;
				s=4;
			}
		}
		else if(s==4)
		{
			if(b[i-1][j]==1)
			{
				i=i-1;
			}
			else 
			{
				j=j+1;
				s=1;
			}
		}
	}
	return 0;
}

