; ModuleID = '46/2831.c'
source_filename = "46/2831.c"
target datalayout = "e-m:e-p270:32:32-p271:32:32-p272:64:64-i64:64-f80:128-n8:16:32:64-S128"
target triple = "x86_64-pc-linux-gnu"

@.str = private unnamed_addr constant [5 x i8] c"%d%d\00", align 1
@.str.1 = private unnamed_addr constant [3 x i8] c"%d\00", align 1
@.str.2 = private unnamed_addr constant [4 x i8] c"%d\0A\00", align 1

; Function Attrs: noinline nounwind uwtable
define dso_local i32 @main() #0 {
  %1 = alloca i32, align 4
  %2 = alloca [200 x [200 x i32]], align 16
  %3 = alloca [200 x [200 x i32]], align 16
  %4 = alloca i32, align 4
  %5 = alloca i32, align 4
  %6 = alloca i32, align 4
  %7 = alloca i32, align 4
  %8 = alloca i32, align 4
  %9 = alloca i32, align 4
  %10 = alloca i32, align 4
  store i32 0, i32* %1, align 4
  store i32 0, i32* %4, align 4
  br label %11

11:                                               ; preds = %29, %0
  %12 = load i32, i32* %4, align 4
  %13 = icmp slt i32 %12, 200
  br i1 %13, label %14, label %32

14:                                               ; preds = %11
  store i32 0, i32* %5, align 4
  br label %15

15:                                               ; preds = %25, %14
  %16 = load i32, i32* %5, align 4
  %17 = icmp slt i32 %16, 200
  br i1 %17, label %18, label %28

18:                                               ; preds = %15
  %19 = load i32, i32* %4, align 4
  %20 = sext i32 %19 to i64
  %21 = getelementptr inbounds [200 x [200 x i32]], [200 x [200 x i32]]* %3, i64 0, i64 %20
  %22 = load i32, i32* %5, align 4
  %23 = sext i32 %22 to i64
  %24 = getelementptr inbounds [200 x i32], [200 x i32]* %21, i64 0, i64 %23
  store i32 0, i32* %24, align 4
  br label %25

25:                                               ; preds = %18
  %26 = load i32, i32* %5, align 4
  %27 = add nsw i32 %26, 1
  store i32 %27, i32* %5, align 4
  br label %15

28:                                               ; preds = %15
  br label %29

29:                                               ; preds = %28
  %30 = load i32, i32* %4, align 4
  %31 = add nsw i32 %30, 1
  store i32 %31, i32* %4, align 4
  br label %11

32:                                               ; preds = %11
  %33 = call i32 (i8*, ...) @__isoc99_scanf(i8* getelementptr inbounds ([5 x i8], [5 x i8]* @.str, i64 0, i64 0), i32* %9, i32* %10)
  store i32 1, i32* %4, align 4
  br label %34

34:                                               ; preds = %61, %32
  %35 = load i32, i32* %4, align 4
  %36 = load i32, i32* %9, align 4
  %37 = icmp sle i32 %35, %36
  br i1 %37, label %38, label %64

38:                                               ; preds = %34
  store i32 1, i32* %5, align 4
  br label %39

39:                                               ; preds = %57, %38
  %40 = load i32, i32* %5, align 4
  %41 = load i32, i32* %10, align 4
  %42 = icmp sle i32 %40, %41
  br i1 %42, label %43, label %60

43:                                               ; preds = %39
  %44 = load i32, i32* %4, align 4
  %45 = sext i32 %44 to i64
  %46 = getelementptr inbounds [200 x [200 x i32]], [200 x [200 x i32]]* %2, i64 0, i64 %45
  %47 = load i32, i32* %5, align 4
  %48 = sext i32 %47 to i64
  %49 = getelementptr inbounds [200 x i32], [200 x i32]* %46, i64 0, i64 %48
  %50 = call i32 (i8*, ...) @__isoc99_scanf(i8* getelementptr inbounds ([3 x i8], [3 x i8]* @.str.1, i64 0, i64 0), i32* %49)
  %51 = load i32, i32* %4, align 4
  %52 = sext i32 %51 to i64
  %53 = getelementptr inbounds [200 x [200 x i32]], [200 x [200 x i32]]* %3, i64 0, i64 %52
  %54 = load i32, i32* %5, align 4
  %55 = sext i32 %54 to i64
  %56 = getelementptr inbounds [200 x i32], [200 x i32]* %53, i64 0, i64 %55
  store i32 1, i32* %56, align 4
  br label %57

57:                                               ; preds = %43
  %58 = load i32, i32* %5, align 4
  %59 = add nsw i32 %58, 1
  store i32 %59, i32* %5, align 4
  br label %39

60:                                               ; preds = %39
  br label %61

61:                                               ; preds = %60
  %62 = load i32, i32* %4, align 4
  %63 = add nsw i32 %62, 1
  store i32 %63, i32* %4, align 4
  br label %34

64:                                               ; preds = %34
  store i32 1, i32* %4, align 4
  store i32 1, i32* %5, align 4
  store i32 1, i32* %8, align 4
  store i32 0, i32* %7, align 4
  br label %65

65:                                               ; preds = %180, %64
  %66 = load i32, i32* %7, align 4
  %67 = load i32, i32* %9, align 4
  %68 = load i32, i32* %10, align 4
  %69 = mul nsw i32 %67, %68
  %70 = icmp slt i32 %66, %69
  br i1 %70, label %71, label %183

71:                                               ; preds = %65
  %72 = load i32, i32* %4, align 4
  %73 = sext i32 %72 to i64
  %74 = getelementptr inbounds [200 x [200 x i32]], [200 x [200 x i32]]* %3, i64 0, i64 %73
  %75 = load i32, i32* %5, align 4
  %76 = sext i32 %75 to i64
  %77 = getelementptr inbounds [200 x i32], [200 x i32]* %74, i64 0, i64 %76
  store i32 0, i32* %77, align 4
  %78 = load i32, i32* %4, align 4
  %79 = sext i32 %78 to i64
  %80 = getelementptr inbounds [200 x [200 x i32]], [200 x [200 x i32]]* %2, i64 0, i64 %79
  %81 = load i32, i32* %5, align 4
  %82 = sext i32 %81 to i64
  %83 = getelementptr inbounds [200 x i32], [200 x i32]* %80, i64 0, i64 %82
  %84 = load i32, i32* %83, align 4
  %85 = call i32 (i8*, ...) @printf(i8* getelementptr inbounds ([4 x i8], [4 x i8]* @.str.2, i64 0, i64 0), i32 %84)
  %86 = load i32, i32* %8, align 4
  %87 = icmp eq i32 %86, 1
  br i1 %87, label %88, label %116

88:                                               ; preds = %71
  %89 = load i32, i32* %4, align 4
  %90 = sext i32 %89 to i64
  %91 = getelementptr inbounds [200 x [200 x i32]], [200 x [200 x i32]]* %3, i64 0, i64 %90
  %92 = load i32, i32* %5, align 4
  %93 = add nsw i32 %92, 1
  %94 = sext i32 %93 to i64
  %95 = getelementptr inbounds [200 x i32], [200 x i32]* %91, i64 0, i64 %94
  %96 = load i32, i32* %95, align 4
  %97 = icmp eq i32 %96, 1
  br i1 %97, label %98, label %101

98:                                               ; preds = %88
  %99 = load i32, i32* %5, align 4
  %100 = add nsw i32 %99, 1
  store i32 %100, i32* %5, align 4
  br label %115

101:                                              ; preds = %88
  %102 = load i32, i32* %4, align 4
  %103 = sext i32 %102 to i64
  %104 = getelementptr inbounds [200 x [200 x i32]], [200 x [200 x i32]]* %3, i64 0, i64 %103
  %105 = load i32, i32* %5, align 4
  %106 = add nsw i32 %105, 1
  %107 = sext i32 %106 to i64
  %108 = getelementptr inbounds [200 x i32], [200 x i32]* %104, i64 0, i64 %107
  %109 = load i32, i32* %108, align 4
  %110 = icmp eq i32 %109, 0
  br i1 %110, label %111, label %114

111:                                              ; preds = %101
  %112 = load i32, i32* %4, align 4
  %113 = add nsw i32 %112, 1
  store i32 %113, i32* %4, align 4
  store i32 2, i32* %8, align 4
  br label %114

114:                                              ; preds = %111, %101
  br label %115

115:                                              ; preds = %114, %98
  br label %179

116:                                              ; preds = %71
  %117 = load i32, i32* %8, align 4
  %118 = icmp eq i32 %117, 2
  br i1 %118, label %119, label %136

119:                                              ; preds = %116
  %120 = load i32, i32* %4, align 4
  %121 = add nsw i32 %120, 1
  %122 = sext i32 %121 to i64
  %123 = getelementptr inbounds [200 x [200 x i32]], [200 x [200 x i32]]* %3, i64 0, i64 %122
  %124 = load i32, i32* %5, align 4
  %125 = sext i32 %124 to i64
  %126 = getelementptr inbounds [200 x i32], [200 x i32]* %123, i64 0, i64 %125
  %127 = load i32, i32* %126, align 4
  %128 = icmp eq i32 %127, 1
  br i1 %128, label %129, label %132

129:                                              ; preds = %119
  %130 = load i32, i32* %4, align 4
  %131 = add nsw i32 %130, 1
  store i32 %131, i32* %4, align 4
  br label %135

132:                                              ; preds = %119
  %133 = load i32, i32* %5, align 4
  %134 = sub nsw i32 %133, 1
  store i32 %134, i32* %5, align 4
  store i32 3, i32* %8, align 4
  br label %135

135:                                              ; preds = %132, %129
  br label %178

136:                                              ; preds = %116
  %137 = load i32, i32* %8, align 4
  %138 = icmp eq i32 %137, 3
  br i1 %138, label %139, label %156

139:                                              ; preds = %136
  %140 = load i32, i32* %4, align 4
  %141 = sext i32 %140 to i64
  %142 = getelementptr inbounds [200 x [200 x i32]], [200 x [200 x i32]]* %3, i64 0, i64 %141
  %143 = load i32, i32* %5, align 4
  %144 = sub nsw i32 %143, 1
  %145 = sext i32 %144 to i64
  %146 = getelementptr inbounds [200 x i32], [200 x i32]* %142, i64 0, i64 %145
  %147 = load i32, i32* %146, align 4
  %148 = icmp eq i32 %147, 1
  br i1 %148, label %149, label %152

149:                                              ; preds = %139
  %150 = load i32, i32* %5, align 4
  %151 = sub nsw i32 %150, 1
  store i32 %151, i32* %5, align 4
  br label %155

152:                                              ; preds = %139
  %153 = load i32, i32* %4, align 4
  %154 = sub nsw i32 %153, 1
  store i32 %154, i32* %4, align 4
  store i32 4, i32* %8, align 4
  br label %155

155:                                              ; preds = %152, %149
  br label %177

156:                                              ; preds = %136
  %157 = load i32, i32* %8, align 4
  %158 = icmp eq i32 %157, 4
  br i1 %158, label %159, label %176

159:                                              ; preds = %156
  %160 = load i32, i32* %4, align 4
  %161 = sub nsw i32 %160, 1
  %162 = sext i32 %161 to i64
  %163 = getelementptr inbounds [200 x [200 x i32]], [200 x [200 x i32]]* %3, i64 0, i64 %162
  %164 = load i32, i32* %5, align 4
  %165 = sext i32 %164 to i64
  %166 = getelementptr inbounds [200 x i32], [200 x i32]* %163, i64 0, i64 %165
  %167 = load i32, i32* %166, align 4
  %168 = icmp eq i32 %167, 1
  br i1 %168, label %169, label %172

169:                                              ; preds = %159
  %170 = load i32, i32* %4, align 4
  %171 = sub nsw i32 %170, 1
  store i32 %171, i32* %4, align 4
  br label %175

172:                                              ; preds = %159
  %173 = load i32, i32* %5, align 4
  %174 = add nsw i32 %173, 1
  store i32 %174, i32* %5, align 4
  store i32 1, i32* %8, align 4
  br label %175

175:                                              ; preds = %172, %169
  br label %176

176:                                              ; preds = %175, %156
  br label %177

177:                                              ; preds = %176, %155
  br label %178

178:                                              ; preds = %177, %135
  br label %179

179:                                              ; preds = %178, %115
  br label %180

180:                                              ; preds = %179
  %181 = load i32, i32* %7, align 4
  %182 = add nsw i32 %181, 1
  store i32 %182, i32* %7, align 4
  br label %65

183:                                              ; preds = %65
  ret i32 0
}

declare dso_local i32 @__isoc99_scanf(i8*, ...) #1

declare dso_local i32 @printf(i8*, ...) #1


!llvm.module.flags = !{!0}
!llvm.ident = !{!1}

!0 = !{i32 1, !"wchar_size", i32 4}
!1 = !{!"clang version 10.0.0-4ubuntu1 "}
